	.text
	.file	"test_arith.cpp"
	.globl	_Z9divr_testii
	.p2align	1
	.type	_Z9divr_testii,@function
_Z9divr_testii:
; %bb.0:
	DIVR
.Lfunc_end0:
	.size	_Z9divr_testii, .Lfunc_end0-_Z9divr_testii

	.globl	_Z9divc_testii
	.p2align	1
	.type	_Z9divc_testii,@function
_Z9divc_testii:
; %bb.0:
	DIVC
.Lfunc_end1:
	.size	_Z9divc_testii, .Lfunc_end1-_Z9divc_testii

	.globl	_Z11divmod_testii
	.p2align	1
	.type	_Z11divmod_testii,@function
_Z11divmod_testii:
; %bb.0:
	DIVMOD
	ADD
.Lfunc_end2:
	.size	_Z11divmod_testii, .Lfunc_end2-_Z11divmod_testii

	.globl	_Z12divmodr_testii
	.p2align	1
	.type	_Z12divmodr_testii,@function
_Z12divmodr_testii:
; %bb.0:
	DIVMODR
	ADD
.Lfunc_end3:
	.size	_Z12divmodr_testii, .Lfunc_end3-_Z12divmodr_testii

	.globl	_Z12divmodc_testii
	.p2align	1
	.type	_Z12divmodc_testii,@function
_Z12divmodc_testii:
; %bb.0:
	DIVMODC
	ADD
.Lfunc_end4:
	.size	_Z12divmodc_testii, .Lfunc_end4-_Z12divmodc_testii

	.globl	_Z12modpow2_testi
	.p2align	1
	.type	_Z12modpow2_testi,@function
_Z12modpow2_testi:
; %bb.0:
	MODPOW2	5
.Lfunc_end5:
	.size	_Z12modpow2_testi, .Lfunc_end5-_Z12modpow2_testi

	.globl	_Z14muldivmod_testiii
	.p2align	1
	.type	_Z14muldivmod_testiii,@function
_Z14muldivmod_testiii:
; %bb.0:
	MULDIVMOD
	ADD
.Lfunc_end6:
	.size	_Z14muldivmod_testiii, .Lfunc_end6-_Z14muldivmod_testiii

	.globl	_Z14mulrshift_testiii
	.p2align	1
	.type	_Z14mulrshift_testiii,@function
_Z14mulrshift_testiii:
; %bb.0:
	MULRSHIFT
.Lfunc_end7:
	.size	_Z14mulrshift_testiii, .Lfunc_end7-_Z14mulrshift_testiii

	.globl	_Z17mulrshift_tt_testii
	.p2align	1
	.type	_Z17mulrshift_tt_testii,@function
_Z17mulrshift_tt_testii:
; %bb.0:
	MULRSHIFT	3
.Lfunc_end8:
	.size	_Z17mulrshift_tt_testii, .Lfunc_end8-_Z17mulrshift_tt_testii

	.globl	_Z18mulrshiftr_tt_testii
	.p2align	1
	.type	_Z18mulrshiftr_tt_testii,@function
_Z18mulrshiftr_tt_testii:
; %bb.0:
	MULRSHIFTR	4
.Lfunc_end9:
	.size	_Z18mulrshiftr_tt_testii, .Lfunc_end9-_Z18mulrshiftr_tt_testii

	.globl	_Z15mulrshiftr_testiii
	.p2align	1
	.type	_Z15mulrshiftr_testiii,@function
_Z15mulrshiftr_testiii:
; %bb.0:
	MULRSHIFTR
.Lfunc_end10:
	.size	_Z15mulrshiftr_testiii, .Lfunc_end10-_Z15mulrshiftr_testiii

	.globl	_Z14lshiftdiv_testiii
	.p2align	1
	.type	_Z14lshiftdiv_testiii,@function
_Z14lshiftdiv_testiii:
; %bb.0:
	LSHIFTDIV
.Lfunc_end11:
	.size	_Z14lshiftdiv_testiii, .Lfunc_end11-_Z14lshiftdiv_testiii

	.globl	_Z15lshiftdivr_testiii
	.p2align	1
	.type	_Z15lshiftdivr_testiii,@function
_Z15lshiftdivr_testiii:
; %bb.0:
	LSHIFTDIVR
.Lfunc_end12:
	.size	_Z15lshiftdivr_testiii, .Lfunc_end12-_Z15lshiftdivr_testiii

	.globl	_Z17lshiftdiv_tt_testii
	.p2align	1
	.type	_Z17lshiftdiv_tt_testii,@function
_Z17lshiftdiv_tt_testii:
; %bb.0:
	LSHIFTDIV	2
.Lfunc_end13:
	.size	_Z17lshiftdiv_tt_testii, .Lfunc_end13-_Z17lshiftdiv_tt_testii

	.globl	_Z18lshiftdivr_tt_testii
	.p2align	1
	.type	_Z18lshiftdivr_tt_testii,@function
_Z18lshiftdivr_tt_testii:
; %bb.0:
	LSHIFTDIVR	4
.Lfunc_end14:
	.size	_Z18lshiftdivr_tt_testii, .Lfunc_end14-_Z18lshiftdivr_tt_testii

	.globl	_Z9pow2_testi
	.p2align	1
	.type	_Z9pow2_testi,@function
_Z9pow2_testi:
; %bb.0:
	POW2
.Lfunc_end15:
	.size	_Z9pow2_testi, .Lfunc_end15-_Z9pow2_testi

	.globl	_Z11minmax_testii
	.p2align	1
	.type	_Z11minmax_testii,@function
_Z11minmax_testii:
; %bb.0:
	MINMAX
	SUB
.Lfunc_end16:
	.size	_Z11minmax_testii, .Lfunc_end16-_Z11minmax_testii

	.globl	_Z9qadd_testii
	.p2align	1
	.type	_Z9qadd_testii,@function
_Z9qadd_testii:
; %bb.0:
	QADD
.Lfunc_end17:
	.size	_Z9qadd_testii, .Lfunc_end17-_Z9qadd_testii

	.globl	_Z9qdiv_testii
	.p2align	1
	.type	_Z9qdiv_testii,@function
_Z9qdiv_testii:
; %bb.0:
	QDIV
.Lfunc_end18:
	.size	_Z9qdiv_testii, .Lfunc_end18-_Z9qdiv_testii

	.globl	_Z9qand_testii
	.p2align	1
	.type	_Z9qand_testii,@function
_Z9qand_testii:
; %bb.0:
	QAND
.Lfunc_end19:
	.size	_Z9qand_testii, .Lfunc_end19-_Z9qand_testii

	.globl	_Z8qor_testii
	.p2align	1
	.type	_Z8qor_testii,@function
_Z8qor_testii:
; %bb.0:
	QOR
.Lfunc_end20:
	.size	_Z8qor_testii, .Lfunc_end20-_Z8qor_testii

	.globl	_Z8sgn_testi
	.p2align	1
	.type	_Z8sgn_testi,@function
_Z8sgn_testi:
; %bb.0:
	SGN
.Lfunc_end21:
	.size	_Z8sgn_testi, .Lfunc_end21-_Z8sgn_testi

	.globl	_Z10isnan_testi
	.p2align	1
	.type	_Z10isnan_testi,@function
_Z10isnan_testi:
; %bb.0:
	ISNAN
.Lfunc_end22:
	.size	_Z10isnan_testi, .Lfunc_end22-_Z10isnan_testi

	.globl	_Z11chknan_testi
	.p2align	1
	.type	_Z11chknan_testi,@function
_Z11chknan_testi:
; %bb.0:
	CHKNAN
.Lfunc_end23:
	.size	_Z11chknan_testi, .Lfunc_end23-_Z11chknan_testi


	.ident	"TON Labs clang for TVM. Version 7.0.0  (based on LLVM 7.0.0)"
	.section	".note.GNU-stack","",@progbits
